Certificate:
    Data:
        Version: 3 (0x2)
        Serial Number: 1 (0x1)
        Signature Algorithm: sha1WithRSAEncryption
        Issuer: C=SE, O=AddTrust AB, OU=AddTrust External TTP Network, CN=AddTrust External CA Root
        Validity
            Not Before: May 30 10:48:38 2000 GMT
            Not After : May 30 10:48:38 2020 GMT
        Subject: C=SE, O=AddTrust AB, OU=AddTrust External TTP Network, CN=AddTrust External CA Root
        Subject Public Key Info:
            Public Key Algorithm: rsaEncryption
            RSA Public Key: (2048 bit)
                Modulus (2048 bit):
                    00:b7:f7:1a:33:e6:f2:00:04:2d:39:e0:4e:5b:ed:
                    1f:bc:6c:0f:cd:b5:fa:23:b6:ce:de:9b:11:33:97:
                    a4:29:4c:7d:93:9f:bd:4a:bc:93:ed:03:1a:e3:8f:
                    cf:e5:6d:50:5a:d6:97:29:94:5a:80:b0:49:7a:db:
                    2e:95:fd:b8:ca:bf:37:38:2d:1e:3e:91:41:ad:70:
                    56:c7:f0:4f:3f:e8:32:9e:74:ca:c8:90:54:e9:c6:
                    5f:0f:78:9d:9a:40:3c:0e:ac:61:aa:5e:14:8f:9e:
                    87:a1:6a:50:dc:d7:9a:4e:af:05:b3:a6:71:94:9c:
                    71:b3:50:60:0a:c7:13:9d:38:07:86:02:a8:e9:a8:
                    69:26:18:90:ab:4c:b0:4f:23:ab:3a:4f:84:d8:df:
                    ce:9f:e1:69:6f:bb:d7:42:d7:6b:44:e4:c7:ad:ee:
                    6d:41:5f:72:5a:71:08:37:b3:79:65:a4:59:a0:94:
                    37:f7:00:2f:0d:c2:92:72:da:d0:38:72:db:14:a8:
                    45:c4:5d:2a:7d:b7:b4:d6:c4:ee:ac:cd:13:44:b7:
                    c9:2b:dd:43:00:25:fa:61:b9:69:6a:58:23:11:b7:
                    a7:33:8f:56:75:59:f5:cd:29:d7:46:b7:0a:2b:65:
                    b6:d3:42:6f:15:b2:b8:7b:fb:ef:e9:5d:53:d5:34:
                    5a:27
                Exponent: 65537 (0x10001)
        X509v3 extensions:
            X509v3 Subject Key Identifier: 
                AD:BD:98:7A:34:B4:26:F7:FA:C4:26:54:EF:03:BD:E0:24:CB:54:1A
            X509v3 Key Usage: 
                Certificate Sign, CRL Sign
            X509v3 Basic Constraints: critical
                CA:TRUE
            X509v3 Authority Key Identifier: 
                keyid:AD:BD:98:7A:34:B4:26:F7:FA:C4:26:54:EF:03:BD:E0:24:CB:54:1A
                DirName:/C=SE/O=AddTrust AB/OU=AddTrust External TTP Network/CN=AddTrust External CA Root
                serial:01

    Signature Algorithm: sha1WithRSAEncryption
        b0:9b:e0:85:25:c2:d6:23:e2:0f:96:06:92:9d:41:98:9c:d9:
        84:79:81:d9:1e:5b:14:07:23:36:65:8f:b0:d8:77:bb:ac:41:
        6c:47:60:83:51:b0:f9:32:3d:e7:fc:f6:26:13:c7:80:16:a5:
        bf:5a:fc:87:cf:78:79:89:21:9a:e2:4c:07:0a:86:35:bc:f2:
        de:51:c4:d2:96:b7:dc:7e:4e:ee:70:fd:1c:39:eb:0c:02:51:
        14:2d:8e:bd:16:e0:c1:df:46:75:e7:24:ad:ec:f4:42:b4:85:
        93:70:10:67:ba:9d:06:35:4a:18:d3:2b:7a:cc:51:42:a1:7a:
        63:d1:e6:bb:a1:c5:2b:c2:36:be:13:0d:e6:bd:63:7e:79:7b:
        a7:09:0d:40:ab:6a:dd:8f:8a:c3:f6:f6:8c:1a:42:05:51:d4:
        45:f5:9f:a7:62:21:68:15:20:43:3c:99:e7:7c:bd:24:d8:a9:
        91:17:73:88:3f:56:1b:31:38:18:b4:71:0f:9a:cd:c8:0e:9e:
        8e:2e:1b:e1:8c:98:83:cb:1f:31:f1:44:4c:c6:04:73:49:76:
        60:0f:c7:f8:bd:17:80:6b:2e:e9:cc:4c:0e:5a:9a:79:0f:20:
        0a:2e:d5:9e:63:26:1e:55:92:94:d8:82:17:5a:7b:d0:bc:c7:
        8f:4e:86:04
MD5 Fingerprint=1D:35:54:04:85:78:B0:3F:42:42:4D:BF:20:73:0A:3F
-----BEGIN CERTIFICATE-----
MIIENjCCAx6gAwIBAgIBATANBgkqhkiG9w0BAQUFADBvMQswCQYDVQQGEwJTRTEU
MBIGA1UEChMLQWRkVHJ1c3QgQUIxJjAkBgNVBAsTHUFkZFRydXN0IEV4dGVybmFs
IFRUUCBOZXR3b3JrMSIwIAYDVQQDExlBZGRUcnVzdCBFeHRlcm5hbCBDQSBSb290
MB4XDTAwMDUzMDEwNDgzOFoXDTIwMDUzMDEwNDgzOFowbzELMAkGA1UEBhMCU0Ux
FDASBgNVBAoTC0FkZFRydXN0IEFCMSYwJAYDVQQLEx1BZGRUcnVzdCBFeHRlcm5h
bCBUVFAgTmV0d29yazEiMCAGA1UEAxMZQWRkVHJ1c3QgRXh0ZXJuYWwgQ0EgUm9v
dDCCASIwDQYJKoZIhvcNAQEBBQADggEPADCCAQoCggEBALf3GjPm8gAELTngTlvt
H7xsD821+iO2zt6bETOXpClMfZOfvUq8k+0DGuOPz+VtUFrWlymUWoCwSXrbLpX9
uMq/NzgtHj6RQa1wVsfwTz/oMp50ysiQVOnGXw94nZpAPA6sYapeFI+eh6FqUNzX
mk6vBbOmcZSccbNQYArHE504B4YCqOmoaSYYkKtMsE8jqzpPhNjfzp/haW+710LX
a0Tkx63ubUFfclpxCDezeWWkWaCUN/cALw3CknLa0Dhy2xSoRcRdKn23tNbE7qzN
E0S3ySvdQwAl+mG5aWpYIxG3pzOPVnVZ9c0p10a3CitlttNCbxWyuHv77+ldU9U0
WicCAwEAAaOB3DCB2TAdBgNVHQ4EFgQUrb2YejS0Jvf6xCZU7wO94CTLVBowCwYD
VR0PBAQDAgEGMA8GA1UdEwEB/wQFMAMBAf8wgZkGA1UdIwSBkTCBjoAUrb2YejS0
Jvf6xCZU7wO94CTLVBqhc6RxMG8xCzAJBgNVBAYTAlNFMRQwEgYDVQQKEwtBZGRU
cnVzdCBBQjEmMCQGA1UECxMdQWRkVHJ1c3QgRXh0ZXJuYWwgVFRQIE5ldHdvcmsx
IjAgBgNVBAMTGUFkZFRydXN0IEV4dGVybmFsIENBIFJvb3SCAQEwDQYJKoZIhvcN
AQEFBQADggEBALCb4IUlwtYj4g+WBpKdQZic2YR5gdkeWxQHIzZlj7DYd7usQWxH
YINRsPkyPef89iYTx4AWpb9a/IfPeHmJIZriTAcKhjW88t5RxNKWt9x+Tu5w/Rw5
6wwCURQtjr0W4MHfRnXnJK3s9EK0hZNwEGe6nQY1ShjTK3rMUUKhemPR5ruhxSvC
Nr4TDea9Y355e6cJDUCrat2PisP29owaQgVR1EX1n6diIWgVIEM8med8vSTYqZEX
c4g/VhsxOBi0cQ+azcgOno4uG+GMmIPLHzHxREzGBHNJdmAPx/i9F4BrLunMTA5a
mnkPIAou1Z5jJh5VkpTYghdae9C8x49OhgQ=
-----END CERTIFICATE-----

Certificate:
    Data:
        Version: 3 (0x2)
        Serial Number:
            b5:ff:5b:96:b7:bd:a3:f3
        Signature Algorithm: sha1WithRSAEncryption
        Issuer: C=UK, ST=London, L=London, O=SamKnows Ltd, CN=SamKnows Ltd Root CA/emailAddress=team@samknows.com
        Validity
            Not Before: Jun  9 20:20:49 2010 GMT
            Not After : Jun  4 20:20:49 2030 GMT
        Subject: C=UK, ST=London, L=London, O=SamKnows Ltd, CN=SamKnows Ltd Root CA/emailAddress=team@samknows.com
        Subject Public Key Info:
            Public Key Algorithm: rsaEncryption
            RSA Public Key: (2048 bit)
                Modulus (2048 bit):
                    00:fa:da:99:3d:c4:b7:6b:e8:db:ae:fb:3d:68:a2:
                    b1:4f:d2:dd:db:70:98:52:59:d4:65:cf:8d:63:99:
                    73:0f:43:3e:9d:b6:22:99:77:ca:a4:ad:a7:d2:28:
                    32:bb:94:d6:1f:1e:cf:25:f8:45:00:f7:97:21:30:
                    6f:d6:3c:44:32:1b:76:d8:31:1a:3a:72:dd:b9:bd:
                    e8:e0:cf:b1:6c:fb:21:3a:42:e3:43:82:50:6d:bc:
                    52:12:35:1b:f0:c7:41:27:83:7d:95:76:5f:b9:ca:
                    dc:ee:a3:9f:5b:48:1d:a1:63:77:df:3d:e8:d0:3a:
                    d0:c2:15:ee:a1:9a:8a:f7:a1:f6:78:dc:98:2c:1d:
                    d4:b1:dd:cd:b0:45:2b:2d:de:ca:44:53:e4:13:75:
                    21:31:e5:f7:b4:a1:51:26:86:42:35:29:e8:d2:0a:
                    3a:d3:a4:c1:12:05:65:87:e6:18:80:9e:ad:01:dc:
                    08:aa:3d:c6:fa:f6:39:96:7a:b9:4c:58:23:24:86:
                    b4:22:81:a4:97:14:a7:22:1a:aa:bf:fd:36:e2:41:
                    20:7e:fd:44:28:ae:6e:35:ca:a8:8d:cf:50:a8:2b:
                    14:d8:00:a0:8c:e6:39:80:84:3b:9e:0a:ce:a1:ac:
                    8f:35:30:c8:aa:2c:70:a5:0a:44:5a:ff:88:a7:13:
                    d5:b7
                Exponent: 65537 (0x10001)
        X509v3 extensions:
            X509v3 Subject Key Identifier: 
                F6:9F:29:A4:CE:18:67:DD:E8:4F:29:77:C1:F6:15:D5:38:0B:80:66
            X509v3 Authority Key Identifier: 
                keyid:F6:9F:29:A4:CE:18:67:DD:E8:4F:29:77:C1:F6:15:D5:38:0B:80:66
                DirName:/C=UK/ST=London/L=London/O=SamKnows Ltd/CN=SamKnows Ltd Root CA/emailAddress=team@samknows.com
                serial:B5:FF:5B:96:B7:BD:A3:F3

            X509v3 Basic Constraints: 
                CA:TRUE
    Signature Algorithm: sha1WithRSAEncryption
        a5:fa:0b:46:d2:0e:87:12:62:d4:83:4d:ce:46:be:94:db:9d:
        3d:b4:3c:4a:1c:d0:fa:2a:ee:cf:74:1d:72:db:a8:75:0d:c1:
        4f:ba:04:50:9d:8c:d0:e9:b5:5e:d1:21:80:51:d8:dc:69:89:
        71:c5:fd:30:ab:1d:26:38:72:61:a7:bb:94:26:33:c6:d5:02:
        46:52:a2:ba:09:e7:e9:47:6c:55:41:e7:41:c7:40:7b:a7:5e:
        e2:91:06:fa:dd:78:26:7d:4e:6c:7f:b7:2b:57:46:78:a1:c4:
        e0:5b:6b:ab:b5:c7:ef:0e:fd:22:82:ec:70:3b:eb:a7:d7:b1:
        cd:6c:0a:43:fa:e2:52:cc:d7:75:4e:e7:88:e9:16:e8:f2:10:
        4e:9f:50:7b:12:e0:55:28:b2:21:64:db:96:45:b8:33:f1:14:
        8d:65:e5:14:8b:81:af:98:7b:c9:cc:ff:db:e8:a1:22:60:d8:
        34:af:d7:71:dd:6e:4e:35:27:33:81:56:eb:2d:6b:8f:9b:45:
        cf:71:fe:de:f8:32:77:d9:fb:44:fd:e0:0a:b7:58:f7:33:f6:
        2b:aa:9a:09:77:a5:33:a0:91:20:11:db:4b:1c:d4:fb:16:bb:
        e4:b7:b5:51:b3:eb:d4:ca:c6:67:1d:50:a4:9a:ff:e5:b1:c0:
        63:8e:5d:93
-----BEGIN CERTIFICATE-----
MIIEgzCCA2ugAwIBAgIJALX/W5a3vaPzMA0GCSqGSIb3DQEBBQUAMIGHMQswCQYD
VQQGEwJVSzEPMA0GA1UECBMGTG9uZG9uMQ8wDQYDVQQHEwZMb25kb24xFTATBgNV
BAoTDFNhbUtub3dzIEx0ZDEdMBsGA1UEAxMUU2FtS25vd3MgTHRkIFJvb3QgQ0Ex
IDAeBgkqhkiG9w0BCQEWEXRlYW1Ac2Fta25vd3MuY29tMB4XDTEwMDYwOTIwMjA0
OVoXDTMwMDYwNDIwMjA0OVowgYcxCzAJBgNVBAYTAlVLMQ8wDQYDVQQIEwZMb25k
b24xDzANBgNVBAcTBkxvbmRvbjEVMBMGA1UEChMMU2FtS25vd3MgTHRkMR0wGwYD
VQQDExRTYW1Lbm93cyBMdGQgUm9vdCBDQTEgMB4GCSqGSIb3DQEJARYRdGVhbUBz
YW1rbm93cy5jb20wggEiMA0GCSqGSIb3DQEBAQUAA4IBDwAwggEKAoIBAQD62pk9
xLdr6Nuu+z1oorFP0t3bcJhSWdRlz41jmXMPQz6dtiKZd8qkrafSKDK7lNYfHs8l
+EUA95chMG/WPEQyG3bYMRo6ct25vejgz7Fs+yE6QuNDglBtvFISNRvwx0Eng32V
dl+5ytzuo59bSB2hY3ffPejQOtDCFe6hmor3ofZ43JgsHdSx3c2wRSst3spEU+QT
dSEx5fe0oVEmhkI1KejSCjrTpMESBWWH5hiAnq0B3AiqPcb69jmWerlMWCMkhrQi
gaSXFKciGqq//TbiQSB+/UQorm41yqiNz1CoKxTYAKCM5jmAhDueCs6hrI81MMiq
LHClCkRa/4inE9W3AgMBAAGjge8wgewwHQYDVR0OBBYEFPafKaTOGGfd6E8pd8H2
FdU4C4BmMIG8BgNVHSMEgbQwgbGAFPafKaTOGGfd6E8pd8H2FdU4C4BmoYGNpIGK
MIGHMQswCQYDVQQGEwJVSzEPMA0GA1UECBMGTG9uZG9uMQ8wDQYDVQQHEwZMb25k
b24xFTATBgNVBAoTDFNhbUtub3dzIEx0ZDEdMBsGA1UEAxMUU2FtS25vd3MgTHRk
IFJvb3QgQ0ExIDAeBgkqhkiG9w0BCQEWEXRlYW1Ac2Fta25vd3MuY29tggkAtf9b
lre9o/MwDAYDVR0TBAUwAwEB/zANBgkqhkiG9w0BAQUFAAOCAQEApfoLRtIOhxJi
1INNzka+lNudPbQ8ShzQ+iruz3QdctuodQ3BT7oEUJ2M0Om1XtEhgFHY3GmJccX9
MKsdJjhyYae7lCYzxtUCRlKiugnn6UdsVUHnQcdAe6de4pEG+t14Jn1ObH+3K1dG
eKHE4Ftrq7XH7w79IoLscDvrp9exzWwKQ/riUszXdU7niOkW6PIQTp9QexLgVSiy
IWTblkW4M/EUjWXlFIuBr5h7ycz/2+ihImDYNK/Xcd1uTjUnM4FW6y1rj5tFz3H+
3vgyd9n7RP3gCrdY9zP2K6qaCXelM6CRIBHbSxzU+xa75Le1UbPr1MrGZx1QpJr/
5bHAY45dkw==
-----END CERTIFICATE-----
